; Function Attrs: nounwind uwtable
define { <2 x float>, <2 x float> } @b2Shape_GetSegment(i64 %0) local_unnamed_addr #0 {
  %.sroa.2.0.extract.shift = lshr i64 %0, 32
  %2 = trunc nuw i64 %.sroa.2.0.extract.shift to i32
  %3 = and i32 %2, 65535
  %4 = tail call ptr @b2GetWorld(i32 noundef %3) #10
  %5 = getelementptr i8, ptr %4, i64 1256
  %.val = load ptr, ptr %5, align 8, !tbaa !14
  %6 = shl i64 %0, 32
  %sext.i = add i64 %6, -4294967296
  %7 = ashr exact i64 %sext.i, 32
  %8 = getelementptr inbounds %struct.b2Shape, ptr %.val, i64 %7
  %9 = getelementptr inbounds nuw i8, ptr %8, i64 132
  %.sroa.02.0.copyload = load <2 x float>, ptr %9, align 4
  %.sroa.23.0..sroa_idx = getelementptr inbounds nuw i8, ptr %8, i64 140
  %.sroa.23.0.copyload = load <2 x float>, ptr %.sroa.23.0..sroa_idx, align 4
  %.fca.0.insert = insertvalue { <2 x float>, <2 x float> } poison, <2 x float> %.sroa.02.0.copyload, 0
  %.fca.1.insert = insertvalue { <2 x float>, <2 x float> } %.fca.0.insert, <2 x float> %.sroa.23.0.copyload, 1
  ret { <2 x float>, <2 x float> } %.fca.1.insert
}